target datalayout = "e-m:e-p270:32:32-p271:32:32-p272:64:64-i64:64-i128:128-f80:128-n8:16:32:64-S128"
target triple = "x86_64-pc-linux-gnu"

%struct.strbuf = type { i64, i64, ptr }
%struct.tempfile = type { %struct.volatile_list_head, i32, ptr, i32, %struct.strbuf, ptr }
%struct.volatile_list_head = type { ptr, ptr }

@__const.setup_temporary_shallow.sb = private unnamed_addr constant %struct.strbuf { i64 0, i64 0, ptr @strbuf_slopbuf }, align 8
@.str.7 = private unnamed_addr constant [15 x i8] c"shallow_XXXXXX\00", align 1
@.str.8 = private unnamed_addr constant [22 x i8] c"failed to write to %s\00", align 1
@.str.9 = private unnamed_addr constant [1 x i8] zeroinitializer, align 1

; Function Attrs: inlinehint nounwind uwtable
define internal ptr @xmks_tempfile(ptr noundef %0) #3 {
  %2 = alloca ptr, align 8
  store ptr %0, ptr %2, align 8, !tbaa !9
  %3 = load ptr, ptr %2, align 8, !tbaa !9
  %4 = call ptr @xmks_tempfile_m(ptr noundef %3, i32 noundef 384)
  ret ptr %4
}

; Function Attrs: nounwind uwtable
define dso_local i32 @write_shallow_commits(ptr noundef %0, i32 noundef %1, ptr noundef %2) #0 {
  %4 = alloca ptr, align 8
  %5 = alloca i32, align 4
  %6 = alloca ptr, align 8
  store ptr %0, ptr %4, align 8, !tbaa !105
  store i32 %1, ptr %5, align 4, !tbaa !11
  store ptr %2, ptr %6, align 8, !tbaa !107
  %7 = load ptr, ptr %4, align 8, !tbaa !105
  %8 = load i32, ptr %5, align 4, !tbaa !11
  %9 = load ptr, ptr %6, align 8, !tbaa !107
  %10 = call i32 @write_shallow_commits_1(ptr noundef %7, i32 noundef %8, ptr noundef %9, i32 noundef 0)
  ret i32 %10
}

; Function Attrs: nounwind uwtable
define dso_local ptr @setup_temporary_shallow(ptr noundef %0) #0 {
  %2 = alloca ptr, align 8
  %3 = alloca ptr, align 8
  %4 = alloca ptr, align 8
  %5 = alloca %struct.strbuf, align 8
  %6 = alloca i32, align 4
  store ptr %0, ptr %3, align 8, !tbaa !107
  call void @llvm.lifetime.start.p0(i64 8, ptr %4) #12
  call void @llvm.lifetime.start.p0(i64 24, ptr %5) #12
  call void @llvm.memcpy.p0.p0.i64(ptr align 8 %5, ptr align 8 @__const.setup_temporary_shallow.sb, i64 24, i1 false)
  %7 = load ptr, ptr %3, align 8, !tbaa !107
  %8 = call i32 @write_shallow_commits(ptr noundef %5, i32 noundef 0, ptr noundef %7)
  %9 = icmp ne i32 %8, 0
  br i1 %9, label %10, label %32

10:                                               ; preds = %1
  %11 = call ptr (ptr, ...) @git_path(ptr noundef @.str.7)
  %12 = call ptr @xmks_tempfile(ptr noundef %11)
  store ptr %12, ptr %4, align 8, !tbaa !118
  %13 = load ptr, ptr %4, align 8, !tbaa !118
  %14 = getelementptr inbounds nuw %struct.tempfile, ptr %13, i32 0, i32 1
  %15 = load volatile i32, ptr %14, align 8, !tbaa !120
  %16 = getelementptr inbounds nuw %struct.strbuf, ptr %5, i32 0, i32 2
  %17 = load ptr, ptr %16, align 8, !tbaa !125
  %18 = getelementptr inbounds nuw %struct.strbuf, ptr %5, i32 0, i32 1
  %19 = load i64, ptr %18, align 8, !tbaa !126
  %20 = call i64 @write_in_full(i32 noundef %15, ptr noundef %17, i64 noundef %19)
  %21 = icmp slt i64 %20, 0
  br i1 %21, label %26, label %22

22:                                               ; preds = %10
  %23 = load ptr, ptr %4, align 8, !tbaa !118
  %24 = call i32 @close_tempfile_gently(ptr noundef %23)
  %25 = icmp slt i32 %24, 0
  br i1 %25, label %26, label %29

26:                                               ; preds = %22, %10
  %27 = load ptr, ptr %4, align 8, !tbaa !118
  %28 = call ptr @get_tempfile_path(ptr noundef %27)
  call void (ptr, ...) @die_errno(ptr noundef @.str.8, ptr noundef %28) #11
  unreachable

29:                                               ; preds = %22
  call void @strbuf_release(ptr noundef %5)
  %30 = load ptr, ptr %4, align 8, !tbaa !118
  %31 = call ptr @get_tempfile_path(ptr noundef %30)
  store ptr %31, ptr %2, align 8
  store i32 1, ptr %6, align 4
  br label %33

32:                                               ; preds = %1
  store ptr @.str.9, ptr %2, align 8
  store i32 1, ptr %6, align 4
  br label %33

33:                                               ; preds = %32, %29
  call void @llvm.lifetime.end.p0(i64 24, ptr %5) #12
  call void @llvm.lifetime.end.p0(i64 8, ptr %4) #12
  %34 = load ptr, ptr %2, align 8
  ret ptr %34
}