; Function Attrs: nounwind uwtable
define dso_local ptr @setup_temporary_shallow(ptr noundef %0) local_unnamed_addr #0 {
  %2 = alloca %struct.strbuf, align 8
  call void @llvm.lifetime.start.p0(i64 24, ptr nonnull %2) #15
  call void @llvm.memcpy.p0.p0.i64(ptr noundef nonnull align 8 dereferenceable(24) %2, ptr noundef nonnull align 8 dereferenceable(24) @__const.prune_shallow.sb, i64 24, i1 false)
  %3 = call fastcc i32 @write_shallow_commits_1(ptr noundef nonnull %2, i32 noundef 0, ptr noundef %0, i32 noundef 0)
  %.not = icmp eq i32 %3, 0
  br i1 %.not, label %22, label %4

4:                                                ; preds = %1
  %5 = call ptr (ptr, ...) @git_path(ptr nonnull poison)
  %6 = call ptr @xmks_tempfile_m(ptr noundef %5, i32 noundef 384) #15
  %7 = getelementptr inbounds nuw i8, ptr %6, i64 16
  %8 = load volatile i32, ptr %7, align 8, !tbaa !95
  %9 = getelementptr inbounds nuw i8, ptr %2, i64 16
  %10 = load ptr, ptr %9, align 8, !tbaa !93
  %11 = getelementptr inbounds nuw i8, ptr %2, i64 8
  %12 = load i64, ptr %11, align 8, !tbaa !92
  %13 = call i64 @write_in_full(i32 noundef %8, ptr noundef %10, i64 noundef %12) #15
  %14 = icmp slt i64 %13, 0
  br i1 %14, label %18, label %15

15:                                               ; preds = %4
  %16 = call i32 @close_tempfile_gently(ptr noundef nonnull %6) #15
  %17 = icmp slt i32 %16, 0
  br i1 %17, label %18, label %20

18:                                               ; preds = %15, %4
  %19 = call ptr @get_tempfile_path(ptr noundef nonnull %6) #15
  call void (ptr, ...) @die_errno(ptr noundef nonnull @.str.8, ptr noundef %19) #14
  unreachable

20:                                               ; preds = %15
  call void @strbuf_release(ptr noundef nonnull %2) #15
  %21 = call ptr @get_tempfile_path(ptr noundef nonnull %6) #15
  br label %22

22:                                               ; preds = %1, %20
  %.0 = phi ptr [ %21, %20 ], [ @.str.9, %1 ]
  call void @llvm.lifetime.end.p0(i64 24, ptr nonnull %2) #15
  ret ptr %.0
}